target datalayout = "e-m:e-p270:32:32-p271:32:32-p272:64:64-i64:64-i128:128-f80:128-n8:16:32:64-S128"
target triple = "x86_64-pc-linux-gnu"

%struct.Vec_Int_t_ = type { i32, i32, ptr }
%struct.Wlc_Ntk_t_ = type { ptr, ptr, %struct.Vec_Int_t_, %struct.Vec_Int_t_, %struct.Vec_Int_t_, %struct.Vec_Int_t_, %struct.Vec_Int_t_, %struct.Vec_Int_t_, ptr, ptr, ptr, [60 x i32], [60 x i32], i32, i32, i32, i32, i32, ptr, i32, i32, ptr, ptr, ptr, ptr, ptr, %struct.Vec_Int_t_, %struct.Vec_Int_t_, i32, %struct.Vec_Int_t_, %struct.Vec_Int_t_, %struct.Vec_Int_t_, %struct.Vec_Int_t_, %struct.Vec_Int_t_, %struct.Vec_Int_t_ }
%struct.Wlc_Obj_t_ = type { i16, i32, i32, i32, %union.anon }
%union.anon = type { [1 x ptr] }

; Function Attrs: inlinehint nounwind uwtable
define internal i32 @Wlc_ObjHasArray(ptr noundef %0) #2 {
  %2 = alloca ptr, align 8
  store ptr %0, ptr %2, align 8, !tbaa !3
  %3 = load ptr, ptr %2, align 8, !tbaa !3
  %4 = getelementptr inbounds nuw %struct.Wlc_Obj_t_, ptr %3, i32 0, i32 1
  %5 = load i32, ptr %4, align 4, !tbaa !28
  %6 = icmp ugt i32 %5, 2
  br i1 %6, label %19, label %7

7:                                                ; preds = %1
  %8 = load ptr, ptr %2, align 8, !tbaa !3
  %9 = load i16, ptr %8, align 8
  %10 = and i16 %9, 63
  %11 = zext i16 %10 to i32
  %12 = icmp eq i32 %11, 6
  br i1 %12, label %19, label %13

13:                                               ; preds = %7
  %14 = load ptr, ptr %2, align 8, !tbaa !3
  %15 = load i16, ptr %14, align 8
  %16 = and i16 %15, 63
  %17 = zext i16 %16 to i32
  %18 = icmp eq i32 %17, 22
  br label %19

19:                                               ; preds = %13, %7, %1
  %20 = phi i1 [ true, %7 ], [ true, %1 ], [ %18, %13 ]
  %21 = zext i1 %20 to i32
  ret i32 %21
}

; Function Attrs: inlinehint nounwind uwtable
define internal ptr @Wlc_ObjFanins(ptr noundef %0) #2 {
  %2 = alloca ptr, align 8
  store ptr %0, ptr %2, align 8, !tbaa !3
  %3 = load ptr, ptr %2, align 8, !tbaa !3
  %4 = call i32 @Wlc_ObjHasArray(ptr noundef %3)
  %5 = icmp ne i32 %4, 0
  br i1 %5, label %6, label %11

6:                                                ; preds = %1
  %7 = load ptr, ptr %2, align 8, !tbaa !3
  %8 = getelementptr inbounds nuw %struct.Wlc_Obj_t_, ptr %7, i32 0, i32 4
  %9 = getelementptr inbounds [1 x ptr], ptr %8, i64 0, i64 0
  %10 = load ptr, ptr %9, align 8, !tbaa !40
  br label %15

11:                                               ; preds = %1
  %12 = load ptr, ptr %2, align 8, !tbaa !3
  %13 = getelementptr inbounds nuw %struct.Wlc_Obj_t_, ptr %12, i32 0, i32 4
  %14 = getelementptr inbounds [2 x i32], ptr %13, i64 0, i64 0
  br label %15

15:                                               ; preds = %11, %6
  %16 = phi ptr [ %10, %6 ], [ %14, %11 ]
  ret ptr %16
}

; Function Attrs: inlinehint nounwind uwtable
define internal ptr @Wlc_ObjFanin0(ptr noundef %0, ptr noundef %1) #2 {
  %3 = alloca ptr, align 8
  %4 = alloca ptr, align 8
  store ptr %0, ptr %3, align 8, !tbaa !8
  store ptr %1, ptr %4, align 8, !tbaa !3
  %5 = load ptr, ptr %3, align 8, !tbaa !8
  %6 = load ptr, ptr %4, align 8, !tbaa !3
  %7 = call i32 @Wlc_ObjFaninId(ptr noundef %6, i32 noundef 0)
  %8 = call ptr @Wlc_NtkObj(ptr noundef %5, i32 noundef %7)
  ret ptr %8
}

; Function Attrs: inlinehint nounwind uwtable
define internal ptr @Wlc_NtkObj(ptr noundef %0, i32 noundef %1) #2 {
  %3 = alloca ptr, align 8
  %4 = alloca i32, align 4
  store ptr %0, ptr %3, align 8, !tbaa !8
  store i32 %1, ptr %4, align 4, !tbaa !12
  %5 = load ptr, ptr %3, align 8, !tbaa !8
  %6 = getelementptr inbounds nuw %struct.Wlc_Ntk_t_, ptr %5, i32 0, i32 18
  %7 = load ptr, ptr %6, align 8, !tbaa !19
  %8 = load i32, ptr %4, align 4, !tbaa !12
  %9 = sext i32 %8 to i64
  %10 = getelementptr inbounds %struct.Wlc_Obj_t_, ptr %7, i64 %9
  ret ptr %10
}

; Function Attrs: inlinehint nounwind uwtable
define internal i32 @Wlc_ObjFaninId(ptr noundef %0, i32 noundef %1) #2 {
  %3 = alloca ptr, align 8
  %4 = alloca i32, align 4
  store ptr %0, ptr %3, align 8, !tbaa !3
  store i32 %1, ptr %4, align 4, !tbaa !12
  %5 = load ptr, ptr %3, align 8, !tbaa !3
  %6 = call ptr @Wlc_ObjFanins(ptr noundef %5)
  %7 = load i32, ptr %4, align 4, !tbaa !12
  %8 = sext i32 %7 to i64
  %9 = getelementptr inbounds i32, ptr %6, i64 %8
  %10 = load i32, ptr %9, align 4, !tbaa !12
  ret i32 %10
}

; Function Attrs: inlinehint nounwind uwtable
define internal i32 @Wlc_ObjFaninNum(ptr noundef %0) #2 {
  %2 = alloca ptr, align 8
  store ptr %0, ptr %2, align 8, !tbaa !3
  %3 = load ptr, ptr %2, align 8, !tbaa !3
  %4 = getelementptr inbounds nuw %struct.Wlc_Obj_t_, ptr %3, i32 0, i32 1
  %5 = load i32, ptr %4, align 4, !tbaa !28
  ret i32 %5
}

; Function Attrs: nounwind uwtable
define i32 @Wlc_ObjHasArithm_rec(ptr noundef %0, ptr noundef %1) #0 {
  %3 = alloca i32, align 4
  %4 = alloca ptr, align 8
  %5 = alloca ptr, align 8
  store ptr %0, ptr %4, align 8, !tbaa !8
  store ptr %1, ptr %5, align 8, !tbaa !3
  %6 = load ptr, ptr %5, align 8, !tbaa !3
  %7 = load i16, ptr %6, align 8
  %8 = and i16 %7, 63
  %9 = zext i16 %8 to i32
  %10 = icmp eq i32 %9, 6
  br i1 %10, label %11, label %12

11:                                               ; preds = %2
  store i32 0, ptr %3, align 4
  br label %69

12:                                               ; preds = %2
  %13 = load ptr, ptr %5, align 8, !tbaa !3
  %14 = load i16, ptr %13, align 8
  %15 = and i16 %14, 63
  %16 = zext i16 %15 to i32
  %17 = icmp eq i32 %16, 7
  br i1 %17, label %36, label %18

18:                                               ; preds = %12
  %19 = load ptr, ptr %5, align 8, !tbaa !3
  %20 = load i16, ptr %19, align 8
  %21 = and i16 %20, 63
  %22 = zext i16 %21 to i32
  %23 = icmp eq i32 %22, 15
  br i1 %23, label %36, label %24

24:                                               ; preds = %18
  %25 = load ptr, ptr %5, align 8, !tbaa !3
  %26 = load i16, ptr %25, align 8
  %27 = and i16 %26, 63
  %28 = zext i16 %27 to i32
  %29 = icmp eq i32 %28, 24
  br i1 %29, label %36, label %30

30:                                               ; preds = %24
  %31 = load ptr, ptr %5, align 8, !tbaa !3
  %32 = load i16, ptr %31, align 8
  %33 = and i16 %32, 63
  %34 = zext i16 %33 to i32
  %35 = icmp eq i32 %34, 25
  br i1 %35, label %36, label %42

36:                                               ; preds = %30, %24, %18, %12
  %37 = load ptr, ptr %4, align 8, !tbaa !8
  %38 = load ptr, ptr %4, align 8, !tbaa !8
  %39 = load ptr, ptr %5, align 8, !tbaa !3
  %40 = call ptr @Wlc_ObjFanin0(ptr noundef %38, ptr noundef %39)
  %41 = call i32 @Wlc_ObjHasArithm_rec(ptr noundef %37, ptr noundef %40)
  store i32 %41, ptr %3, align 4
  br label %69

42:                                               ; preds = %30
  %43 = load ptr, ptr %5, align 8, !tbaa !3
  %44 = load i16, ptr %43, align 8
  %45 = and i16 %44, 63
  %46 = zext i16 %45 to i32
  %47 = icmp eq i32 %46, 43
  br i1 %47, label %66, label %48

48:                                               ; preds = %42
  %49 = load ptr, ptr %5, align 8, !tbaa !3
  %50 = load i16, ptr %49, align 8
  %51 = and i16 %50, 63
  %52 = zext i16 %51 to i32
  %53 = icmp eq i32 %52, 44
  br i1 %53, label %66, label %54

54:                                               ; preds = %48
  %55 = load ptr, ptr %5, align 8, !tbaa !3
  %56 = load i16, ptr %55, align 8
  %57 = and i16 %56, 63
  %58 = zext i16 %57 to i32
  %59 = icmp eq i32 %58, 45
  br i1 %59, label %66, label %60

60:                                               ; preds = %54
  %61 = load ptr, ptr %5, align 8, !tbaa !3
  %62 = load i16, ptr %61, align 8
  %63 = and i16 %62, 63
  %64 = zext i16 %63 to i32
  %65 = icmp eq i32 %64, 50
  br label %66

66:                                               ; preds = %60, %54, %48, %42
  %67 = phi i1 [ true, %54 ], [ true, %48 ], [ true, %42 ], [ %65, %60 ]
  %68 = zext i1 %67 to i32
  store i32 %68, ptr %3, align 4
  br label %69

69:                                               ; preds = %66, %36, %11
  %70 = load i32, ptr %3, align 4
  ret i32 %70
}

; Function Attrs: inlinehint nounwind uwtable
define internal void @Vec_IntClear(ptr noundef %0) #2 {
  %2 = alloca ptr, align 8
  store ptr %0, ptr %2, align 8, !tbaa !10
  %3 = load ptr, ptr %2, align 8, !tbaa !10
  %4 = getelementptr inbounds nuw %struct.Vec_Int_t_, ptr %3, i32 0, i32 1
  store i32 0, ptr %4, align 4, !tbaa !16
  ret void
}

; Function Attrs: nounwind uwtable
define void @Wlc_WinCompute(ptr noundef %0, ptr noundef %1, ptr noundef %2, ptr noundef %3) #0 {
  %5 = alloca ptr, align 8
  %6 = alloca ptr, align 8
  %7 = alloca ptr, align 8
  %8 = alloca ptr, align 8
  %9 = alloca ptr, align 8
  %10 = alloca i32, align 4
  store ptr %0, ptr %5, align 8, !tbaa !8
  store ptr %1, ptr %6, align 8, !tbaa !3
  store ptr %2, ptr %7, align 8, !tbaa !10
  store ptr %3, ptr %8, align 8, !tbaa !10
  %11 = load ptr, ptr %7, align 8, !tbaa !10
  call void @Vec_IntClear(ptr noundef %11)
  %12 = load ptr, ptr %8, align 8, !tbaa !10
  call void @Vec_IntClear(ptr noundef %12)
  %13 = load ptr, ptr %5, align 8, !tbaa !8
  %14 = load ptr, ptr %6, align 8, !tbaa !3
  %15 = call i32 @Wlc_ObjHasArithm_rec(ptr noundef %13, ptr noundef %14)
  %16 = icmp ne i32 %15, 0
  br i1 %16, label %17, label %24

17:                                               ; preds = %4
  %18 = load ptr, ptr %5, align 8, !tbaa !8
  %19 = load ptr, ptr %6, align 8, !tbaa !3
  %20 = load ptr, ptr %7, align 8, !tbaa !10
  %21 = load ptr, ptr %8, align 8, !tbaa !10
  call void @Wlc_WinCompute_rec(ptr noundef %18, ptr noundef %19, ptr noundef %20, ptr noundef %21)
  %22 = load ptr, ptr %5, align 8, !tbaa !8
  %23 = load ptr, ptr %6, align 8, !tbaa !3
  call void @Wlc_WinCleanMark_rec(ptr noundef %22, ptr noundef %23)
  br label %86

24:                                               ; preds = %4
  %25 = load ptr, ptr %5, align 8, !tbaa !8
  %26 = load ptr, ptr %6, align 8, !tbaa !3
  %27 = call i32 @Wlc_ObjHasArithmFanins(ptr noundef %25, ptr noundef %26)
  %28 = icmp ne i32 %27, 0
  br i1 %28, label %29, label %84

29:                                               ; preds = %24
  call void @llvm.lifetime.start.p0(i64 8, ptr %9) #7
  call void @llvm.lifetime.start.p0(i64 4, ptr %10) #7
  store i32 0, ptr %10, align 4, !tbaa !12
  br label %30

30:                                               ; preds = %54, %29
  %31 = load i32, ptr %10, align 4, !tbaa !12
  %32 = load ptr, ptr %6, align 8, !tbaa !3
  %33 = call i32 @Wlc_ObjFaninNum(ptr noundef %32)
  %34 = icmp slt i32 %31, %33
  br i1 %34, label %35, label %41

35:                                               ; preds = %30
  %36 = load ptr, ptr %5, align 8, !tbaa !8
  %37 = load ptr, ptr %6, align 8, !tbaa !3
  %38 = load i32, ptr %10, align 4, !tbaa !12
  %39 = call i32 @Wlc_ObjFaninId(ptr noundef %37, i32 noundef %38)
  %40 = call ptr @Wlc_NtkObj(ptr noundef %36, i32 noundef %39)
  store ptr %40, ptr %9, align 8, !tbaa !3
  br label %41

41:                                               ; preds = %35, %30
  %42 = phi i1 [ false, %30 ], [ true, %35 ]
  br i1 %42, label %43, label %57

43:                                               ; preds = %41
  %44 = load ptr, ptr %5, align 8, !tbaa !8
  %45 = load ptr, ptr %9, align 8, !tbaa !3
  %46 = call i32 @Wlc_ObjHasArithm_rec(ptr noundef %44, ptr noundef %45)
  %47 = icmp ne i32 %46, 0
  br i1 %47, label %48, label %53

48:                                               ; preds = %43
  %49 = load ptr, ptr %5, align 8, !tbaa !8
  %50 = load ptr, ptr %9, align 8, !tbaa !3
  %51 = load ptr, ptr %7, align 8, !tbaa !10
  %52 = load ptr, ptr %8, align 8, !tbaa !10
  call void @Wlc_WinCompute_rec(ptr noundef %49, ptr noundef %50, ptr noundef %51, ptr noundef %52)
  br label %53

53:                                               ; preds = %48, %43
  br label %54

54:                                               ; preds = %53
  %55 = load i32, ptr %10, align 4, !tbaa !12
  %56 = add nsw i32 %55, 1
  store i32 %56, ptr %10, align 4, !tbaa !12
  br label %30, !llvm.loop !33

57:                                               ; preds = %41
  store i32 0, ptr %10, align 4, !tbaa !12
  br label %58

58:                                               ; preds = %80, %57
  %59 = load i32, ptr %10, align 4, !tbaa !12
  %60 = load ptr, ptr %6, align 8, !tbaa !3
  %61 = call i32 @Wlc_ObjFaninNum(ptr noundef %60)
  %62 = icmp slt i32 %59, %61
  br i1 %62, label %63, label %69

63:                                               ; preds = %58
  %64 = load ptr, ptr %5, align 8, !tbaa !8
  %65 = load ptr, ptr %6, align 8, !tbaa !3
  %66 = load i32, ptr %10, align 4, !tbaa !12
  %67 = call i32 @Wlc_ObjFaninId(ptr noundef %65, i32 noundef %66)
  %68 = call ptr @Wlc_NtkObj(ptr noundef %64, i32 noundef %67)
  store ptr %68, ptr %9, align 8, !tbaa !3
  br label %69

69:                                               ; preds = %63, %58
  %70 = phi i1 [ false, %58 ], [ true, %63 ]
  br i1 %70, label %71, label %83

71:                                               ; preds = %69
  %72 = load ptr, ptr %5, align 8, !tbaa !8
  %73 = load ptr, ptr %9, align 8, !tbaa !3
  %74 = call i32 @Wlc_ObjHasArithm_rec(ptr noundef %72, ptr noundef %73)
  %75 = icmp ne i32 %74, 0
  br i1 %75, label %76, label %79

76:                                               ; preds = %71
  %77 = load ptr, ptr %5, align 8, !tbaa !8
  %78 = load ptr, ptr %9, align 8, !tbaa !3
  call void @Wlc_WinCleanMark_rec(ptr noundef %77, ptr noundef %78)
  br label %79

79:                                               ; preds = %76, %71
  br label %80

80:                                               ; preds = %79
  %81 = load i32, ptr %10, align 4, !tbaa !12
  %82 = add nsw i32 %81, 1
  store i32 %82, ptr %10, align 4, !tbaa !12
  br label %58, !llvm.loop !34

83:                                               ; preds = %69
  call void @llvm.lifetime.end.p0(i64 4, ptr %10) #7
  call void @llvm.lifetime.end.p0(i64 8, ptr %9) #7
  br label %85

84:                                               ; preds = %24
  br label %85

85:                                               ; preds = %84, %83
  br label %86

86:                                               ; preds = %85, %17
  ret void
}