; Function Attrs: nounwind uwtable
define void @Wlc_WinCompute(ptr noundef readonly captures(none) %0, ptr noundef %1, ptr noundef captures(none) initializes((4, 8)) %2, ptr noundef captures(none) initializes((4, 8)) %3) local_unnamed_addr #2 {
  %5 = getelementptr inbounds nuw i8, ptr %2, i64 4
  store i32 0, ptr %5, align 4, !tbaa !3
  %6 = getelementptr inbounds nuw i8, ptr %3, i64 4
  store i32 0, ptr %6, align 4, !tbaa !3
  %7 = getelementptr i8, ptr %0, i64 640
  br label %tailrecurse.i

tailrecurse.i:                                    ; preds = %Wlc_ObjFanin0.exit.i, %4
  %.tr13.i = phi ptr [ %1, %4 ], [ %19, %Wlc_ObjFanin0.exit.i ]
  %8 = load i16, ptr %.tr13.i, align 8
  %9 = and i16 %8, 63
  switch i16 %9, label %Wlc_ObjHasArithm_rec.exit.thread [
    i16 50, label %Wlc_ObjHasArithm_rec.exit.thread65
    i16 7, label %10
    i16 15, label %10
    i16 24, label %10
    i16 25, label %10
    i16 43, label %Wlc_ObjHasArithm_rec.exit.thread65
    i16 44, label %Wlc_ObjHasArithm_rec.exit.thread65
    i16 45, label %Wlc_ObjHasArithm_rec.exit.thread65
  ]

10:                                               ; preds = %tailrecurse.i, %tailrecurse.i, %tailrecurse.i, %tailrecurse.i
  %11 = getelementptr inbounds nuw i8, ptr %.tr13.i, i64 4
  %12 = load i32, ptr %11, align 4, !tbaa !23
  %13 = icmp ugt i32 %12, 2
  %cond.i = icmp eq i16 %9, 22
  %or.cond.i = or i1 %cond.i, %13
  %14 = getelementptr inbounds nuw i8, ptr %.tr13.i, i64 16
  br i1 %or.cond.i, label %Wlc_ObjHasArray.exit.thread.i.i.i.i, label %Wlc_ObjFanin0.exit.i

Wlc_ObjHasArray.exit.thread.i.i.i.i:              ; preds = %10
  %15 = load ptr, ptr %14, align 8, !tbaa !25
  br label %Wlc_ObjFanin0.exit.i

Wlc_ObjFanin0.exit.i:                             ; preds = %Wlc_ObjHasArray.exit.thread.i.i.i.i, %10
  %16 = phi ptr [ %15, %Wlc_ObjHasArray.exit.thread.i.i.i.i ], [ %14, %10 ]
  %17 = load i32, ptr %16, align 4, !tbaa !20
  %.val.i.i = load ptr, ptr %7, align 8, !tbaa !11
  %18 = sext i32 %17 to i64
  %19 = getelementptr inbounds %struct.Wlc_Obj_t_, ptr %.val.i.i, i64 %18
  br label %tailrecurse.i

Wlc_ObjHasArithm_rec.exit.thread65:               ; preds = %tailrecurse.i, %tailrecurse.i, %tailrecurse.i, %tailrecurse.i
  tail call void @Wlc_WinCompute_rec(ptr noundef %0, ptr noundef %1, ptr noundef %2, ptr noundef %3)
  tail call void @Wlc_WinCleanMark_rec(ptr noundef %0, ptr noundef %1)
  br label %.critedge2

Wlc_ObjHasArithm_rec.exit.thread:                 ; preds = %tailrecurse.i
  %20 = tail call i32 @Wlc_ObjHasArithmFanins(ptr noundef %0, ptr noundef %1)
  %.not35 = icmp eq i32 %20, 0
  br i1 %.not35, label %.critedge2, label %.preheader

.preheader:                                       ; preds = %Wlc_ObjHasArithm_rec.exit.thread
  %21 = getelementptr i8, ptr %1, i64 4
  %.val4080 = load i32, ptr %21, align 4, !tbaa !23
  %22 = icmp sgt i32 %.val4080, 0
  br i1 %22, label %.lr.ph, label %.critedge2

.lr.ph:                                           ; preds = %.preheader
  %23 = getelementptr inbounds nuw i8, ptr %1, i64 16
  br label %26

.critedge.preheader:                              ; preds = %Wlc_ObjHasArithm_rec.exit50.thread
  %24 = icmp sgt i32 %.val40, 0
  br i1 %24, label %.lr.ph85, label %.critedge2

.lr.ph85:                                         ; preds = %.critedge.preheader
  %25 = getelementptr inbounds nuw i8, ptr %1, i64 16
  br label %51

26:                                               ; preds = %.lr.ph, %Wlc_ObjHasArithm_rec.exit50.thread
  %.val4091 = phi i32 [ %.val4080, %.lr.ph ], [ %.val40, %Wlc_ObjHasArithm_rec.exit50.thread ]
  %indvars.iv = phi i64 [ 0, %.lr.ph ], [ %indvars.iv.next, %Wlc_ObjHasArithm_rec.exit50.thread ]
  %27 = icmp ugt i32 %.val4091, 2
  br i1 %27, label %Wlc_ObjHasArray.exit.thread.i.i, label %28

28:                                               ; preds = %26
  %29 = load i16, ptr %1, align 8
  %30 = and i16 %29, 63
  switch i16 %30, label %Wlc_ObjFaninId.exit [
    i16 6, label %Wlc_ObjHasArray.exit.thread.i.i
    i16 22, label %Wlc_ObjHasArray.exit.thread.i.i
  ]

Wlc_ObjHasArray.exit.thread.i.i:                  ; preds = %28, %28, %26
  %31 = load ptr, ptr %23, align 8, !tbaa !25
  br label %Wlc_ObjFaninId.exit

Wlc_ObjFaninId.exit:                              ; preds = %28, %Wlc_ObjHasArray.exit.thread.i.i
  %32 = phi ptr [ %31, %Wlc_ObjHasArray.exit.thread.i.i ], [ %23, %28 ]
  %33 = getelementptr inbounds nuw i32, ptr %32, i64 %indvars.iv
  %34 = load i32, ptr %33, align 4, !tbaa !20
  %.val38 = load ptr, ptr %7, align 8, !tbaa !11
  %35 = sext i32 %34 to i64
  %36 = getelementptr inbounds %struct.Wlc_Obj_t_, ptr %.val38, i64 %35
  br label %tailrecurse.i41

tailrecurse.i41:                                  ; preds = %Wlc_ObjFanin0.exit.i46, %Wlc_ObjFaninId.exit
  %.tr13.i42 = phi ptr [ %36, %Wlc_ObjFaninId.exit ], [ %48, %Wlc_ObjFanin0.exit.i46 ]
  %37 = load i16, ptr %.tr13.i42, align 8
  %38 = and i16 %37, 63
  switch i16 %38, label %Wlc_ObjHasArithm_rec.exit50.thread [
    i16 50, label %Wlc_ObjHasArithm_rec.exit50.thread70
    i16 7, label %39
    i16 15, label %39
    i16 24, label %39
    i16 25, label %39
    i16 43, label %Wlc_ObjHasArithm_rec.exit50.thread70
    i16 44, label %Wlc_ObjHasArithm_rec.exit50.thread70
    i16 45, label %Wlc_ObjHasArithm_rec.exit50.thread70
  ]

39:                                               ; preds = %tailrecurse.i41, %tailrecurse.i41, %tailrecurse.i41, %tailrecurse.i41
  %40 = getelementptr inbounds nuw i8, ptr %.tr13.i42, i64 4
  %41 = load i32, ptr %40, align 4, !tbaa !23
  %42 = icmp ugt i32 %41, 2
  %cond.i44 = icmp eq i16 %38, 22
  %or.cond.i45 = or i1 %cond.i44, %42
  %43 = getelementptr inbounds nuw i8, ptr %.tr13.i42, i64 16
  br i1 %or.cond.i45, label %Wlc_ObjHasArray.exit.thread.i.i.i.i48, label %Wlc_ObjFanin0.exit.i46

Wlc_ObjHasArray.exit.thread.i.i.i.i48:            ; preds = %39
  %44 = load ptr, ptr %43, align 8, !tbaa !25
  br label %Wlc_ObjFanin0.exit.i46

Wlc_ObjFanin0.exit.i46:                           ; preds = %Wlc_ObjHasArray.exit.thread.i.i.i.i48, %39
  %45 = phi ptr [ %44, %Wlc_ObjHasArray.exit.thread.i.i.i.i48 ], [ %43, %39 ]
  %46 = load i32, ptr %45, align 4, !tbaa !20
  %47 = sext i32 %46 to i64
  %48 = getelementptr inbounds %struct.Wlc_Obj_t_, ptr %.val38, i64 %47
  br label %tailrecurse.i41

Wlc_ObjHasArithm_rec.exit50.thread70:             ; preds = %tailrecurse.i41, %tailrecurse.i41, %tailrecurse.i41, %tailrecurse.i41
  tail call void @Wlc_WinCompute_rec(ptr noundef %0, ptr noundef %36, ptr noundef %2, ptr noundef %3)
  %.val40.pre = load i32, ptr %21, align 4, !tbaa !23
  br label %Wlc_ObjHasArithm_rec.exit50.thread

Wlc_ObjHasArithm_rec.exit50.thread:               ; preds = %tailrecurse.i41, %Wlc_ObjHasArithm_rec.exit50.thread70
  %.val40 = phi i32 [ %.val40.pre, %Wlc_ObjHasArithm_rec.exit50.thread70 ], [ %.val4091, %tailrecurse.i41 ]
  %indvars.iv.next = add nuw nsw i64 %indvars.iv, 1
  %49 = sext i32 %.val40 to i64
  %50 = icmp slt i64 %indvars.iv.next, %49
  br i1 %50, label %26, label %.critedge.preheader, !llvm.loop !30

51:                                               ; preds = %.lr.ph85, %Wlc_ObjHasArithm_rec.exit62.thread
  %.val39.pr93 = phi i32 [ %.val40, %.lr.ph85 ], [ %.val39.pr, %Wlc_ObjHasArithm_rec.exit62.thread ]
  %indvars.iv88 = phi i64 [ 0, %.lr.ph85 ], [ %indvars.iv.next89, %Wlc_ObjHasArithm_rec.exit62.thread ]
  %52 = icmp ugt i32 %.val39.pr93, 2
  br i1 %52, label %Wlc_ObjHasArray.exit.thread.i.i51, label %53

53:                                               ; preds = %51
  %54 = load i16, ptr %1, align 8
  %55 = and i16 %54, 63
  switch i16 %55, label %Wlc_ObjFaninId.exit52 [
    i16 6, label %Wlc_ObjHasArray.exit.thread.i.i51
    i16 22, label %Wlc_ObjHasArray.exit.thread.i.i51
  ]

Wlc_ObjHasArray.exit.thread.i.i51:                ; preds = %53, %53, %51
  %56 = load ptr, ptr %25, align 8, !tbaa !25
  br label %Wlc_ObjFaninId.exit52

Wlc_ObjFaninId.exit52:                            ; preds = %53, %Wlc_ObjHasArray.exit.thread.i.i51
  %57 = phi ptr [ %56, %Wlc_ObjHasArray.exit.thread.i.i51 ], [ %25, %53 ]
  %58 = getelementptr inbounds nuw i32, ptr %57, i64 %indvars.iv88
  %59 = load i32, ptr %58, align 4, !tbaa !20
  %.val = load ptr, ptr %7, align 8, !tbaa !11
  %60 = sext i32 %59 to i64
  %61 = getelementptr inbounds %struct.Wlc_Obj_t_, ptr %.val, i64 %60
  br label %tailrecurse.i53

tailrecurse.i53:                                  ; preds = %Wlc_ObjFanin0.exit.i58, %Wlc_ObjFaninId.exit52
  %.tr13.i54 = phi ptr [ %61, %Wlc_ObjFaninId.exit52 ], [ %73, %Wlc_ObjFanin0.exit.i58 ]
  %62 = load i16, ptr %.tr13.i54, align 8
  %63 = and i16 %62, 63
  switch i16 %63, label %Wlc_ObjHasArithm_rec.exit62.thread [
    i16 50, label %Wlc_ObjHasArithm_rec.exit62.thread75
    i16 7, label %64
    i16 15, label %64
    i16 24, label %64
    i16 25, label %64
    i16 43, label %Wlc_ObjHasArithm_rec.exit62.thread75
    i16 44, label %Wlc_ObjHasArithm_rec.exit62.thread75
    i16 45, label %Wlc_ObjHasArithm_rec.exit62.thread75
  ]

64:                                               ; preds = %tailrecurse.i53, %tailrecurse.i53, %tailrecurse.i53, %tailrecurse.i53
  %65 = getelementptr inbounds nuw i8, ptr %.tr13.i54, i64 4
  %66 = load i32, ptr %65, align 4, !tbaa !23
  %67 = icmp ugt i32 %66, 2
  %cond.i56 = icmp eq i16 %63, 22
  %or.cond.i57 = or i1 %cond.i56, %67
  %68 = getelementptr inbounds nuw i8, ptr %.tr13.i54, i64 16
  br i1 %or.cond.i57, label %Wlc_ObjHasArray.exit.thread.i.i.i.i60, label %Wlc_ObjFanin0.exit.i58

Wlc_ObjHasArray.exit.thread.i.i.i.i60:            ; preds = %64
  %69 = load ptr, ptr %68, align 8, !tbaa !25
  br label %Wlc_ObjFanin0.exit.i58

Wlc_ObjFanin0.exit.i58:                           ; preds = %Wlc_ObjHasArray.exit.thread.i.i.i.i60, %64
  %70 = phi ptr [ %69, %Wlc_ObjHasArray.exit.thread.i.i.i.i60 ], [ %68, %64 ]
  %71 = load i32, ptr %70, align 4, !tbaa !20
  %72 = sext i32 %71 to i64
  %73 = getelementptr inbounds %struct.Wlc_Obj_t_, ptr %.val, i64 %72
  br label %tailrecurse.i53

Wlc_ObjHasArithm_rec.exit62.thread75:             ; preds = %tailrecurse.i53, %tailrecurse.i53, %tailrecurse.i53, %tailrecurse.i53
  tail call void @Wlc_WinCleanMark_rec(ptr noundef %0, ptr noundef %61)
  %.val39.pr.pre = load i32, ptr %21, align 4, !tbaa !23
  br label %Wlc_ObjHasArithm_rec.exit62.thread

Wlc_ObjHasArithm_rec.exit62.thread:               ; preds = %tailrecurse.i53, %Wlc_ObjHasArithm_rec.exit62.thread75
  %.val39.pr = phi i32 [ %.val39.pr.pre, %Wlc_ObjHasArithm_rec.exit62.thread75 ], [ %.val39.pr93, %tailrecurse.i53 ]
  %indvars.iv.next89 = add nuw nsw i64 %indvars.iv88, 1
  %74 = sext i32 %.val39.pr to i64
  %75 = icmp slt i64 %indvars.iv.next89, %74
  br i1 %75, label %51, label %.critedge2, !llvm.loop !31

.critedge2:                                       ; preds = %Wlc_ObjHasArithm_rec.exit62.thread, %.preheader, %.critedge.preheader, %Wlc_ObjHasArithm_rec.exit.thread, %Wlc_ObjHasArithm_rec.exit.thread65
  ret void
}